ccopy_reg
_reconstructor
p0
(cgoogle.oauth2.credentials
Credentials
p1
c__builtin__
object
p2
Ntp3
Rp4
(dp5
S'_token_uri'
p6
Vhttps://oauth2.googleapis.com/token
p7
sS'_client_secret'
p8
Vv2AClYZLz6xPgclRtitNRhM3
p9
sS'_id_token'
p10
NsS'token'
p11
Vya29.Glv8Bp41IQvTrycHTxt2FoFbmHTmobx1gtxAIFfc0wx8IMN2SZyUkOsTrs3uq9YghssAcYws3KU0MUXHTxfPegHy6rDuAxQrKOzKqEIHDf1NC_CQWwD0p9sI4q0u
p12
sS'_refresh_token'
p13
V1/mQlE9BZ5tR1eGX67_orOvcxYSRjjCFCYdOpEv1zh2dg
p14
sS'_scopes'
p15
(lp16
S'https://www.googleapis.com/auth/drive.readonly'
p17
asS'_client_id'
p18
V270801891738-5pkvjm9td9lev3rteobduug8bbhp6rjc.apps.googleusercontent.com
p19
sS'expiry'
p20
cdatetime
datetime
p21
(S'\x07\xe3\x05\x01\r\x02,\x05\xb4\x93'
p22
tp23
Rp24
sb.